; Function Attrs: mustprogress nounwind uwtable
define hidden ptr @assimp_stbi_zlib_decode_noheader_malloc(ptr noundef %buffer, i32 noundef %len, ptr noundef writeonly %outlen) local_unnamed_addr #0 {
entry:
  %a = alloca %struct.stbi__zbuf, align 8
  %call.i = tail call noalias noundef dereferenceable_or_null(16384) ptr @malloc(i64 noundef 16384) #47
  %cmp = icmp eq ptr %call.i, null
  br i1 %cmp, label %return, label %if.end

if.end:                                           ; preds = %entry
  store ptr %buffer, ptr %a, align 8
  %idx.ext = sext i32 %len to i64
  %add.ptr = getelementptr inbounds i8, ptr %buffer, i64 %idx.ext
  %zbuffer_end = getelementptr inbounds i8, ptr %a, i64 8
  store ptr %add.ptr, ptr %zbuffer_end, align 8
  %call1 = call fastcc noundef i32 @_ZL13stbi__do_zlibP10stbi__zbufPciii(ptr noundef nonnull %a, ptr noundef nonnull %call.i, i32 noundef 16384, i32 noundef 1, i32 noundef 0), !range !34
  %tobool.not = icmp eq i32 %call1, 0
  br i1 %tobool.not, label %if.else, label %if.then2

if.then2:                                         ; preds = %if.end
  %tobool3.not = icmp eq ptr %outlen, null
  br i1 %tobool3.not, label %if.then2.if.end5_crit_edge, label %if.then4

if.then2.if.end5_crit_edge:                       ; preds = %if.then2
  %zout_start6.phi.trans.insert = getelementptr inbounds i8, ptr %a, i64 32
  %.pre = load ptr, ptr %zout_start6.phi.trans.insert, align 8
  br label %return

if.then4:                                         ; preds = %if.then2
  %zout = getelementptr inbounds i8, ptr %a, i64 24
  %0 = load ptr, ptr %zout, align 8
  %zout_start = getelementptr inbounds i8, ptr %a, i64 32
  %1 = load ptr, ptr %zout_start, align 8
  %sub.ptr.lhs.cast = ptrtoint ptr %0 to i64
  %sub.ptr.rhs.cast = ptrtoint ptr %1 to i64
  %sub.ptr.sub = sub i64 %sub.ptr.lhs.cast, %sub.ptr.rhs.cast
  %conv = trunc i64 %sub.ptr.sub to i32
  store i32 %conv, ptr %outlen, align 4
  br label %return

if.else:                                          ; preds = %if.end
  %zout_start7 = getelementptr inbounds i8, ptr %a, i64 32
  %2 = load ptr, ptr %zout_start7, align 8
  call void @free(ptr noundef %2) #44
  br label %return

return:                                           ; preds = %if.then4, %if.then2.if.end5_crit_edge, %entry, %if.else
  %retval.0 = phi ptr [ null, %if.else ], [ null, %entry ], [ %.pre, %if.then2.if.end5_crit_edge ], [ %1, %if.then4 ]
  ret ptr %retval.0
}